target datalayout = "e-m:e-p270:32:32-p271:32:32-p272:64:64-i64:64-i128:128-f80:128-n8:16:32:64-S128"
target triple = "x86_64-pc-linux-gnu"

%"struct.cv::VersionInfo" = type { i32, [7 x i32], [4 x %"struct.cv::BlockParams"] }
%"struct.cv::BlockParams" = type { i32, i32, i32, i32, i32 }
%"class.__gnu_cxx::__normal_iterator" = type { ptr }
%"struct.std::_Vector_base" = type { %"struct.std::_Vector_base<int, std::allocator<int>>::_Vector_impl" }
%"struct.std::_Vector_base<int, std::allocator<int>>::_Vector_impl" = type { %"struct.std::_Vector_base<int, std::allocator<int>>::_Vector_impl_data" }
%"struct.std::_Vector_base<int, std::allocator<int>>::_Vector_impl_data" = type { ptr, ptr, ptr }

; Function Attrs: mustprogress nounwind uwtable
define linkonce_odr hidden noundef nonnull align 8 dereferenceable(8) ptr @_ZNK9__gnu_cxx17__normal_iteratorIPKiSt6vectorIiSaIiEEE4baseEv(ptr noundef nonnull align 8 dereferenceable(8) %0) #0 comdat align 2 {
  %2 = alloca ptr, align 8
  store ptr %0, ptr %2, align 8, !tbaa !39
  %3 = load ptr, ptr %2, align 8
  %4 = getelementptr inbounds nuw %"class.__gnu_cxx::__normal_iterator", ptr %3, i32 0, i32 0
  ret ptr %4
}

; Function Attrs: mustprogress nounwind uwtable
define linkonce_odr hidden void @_ZN9__gnu_cxx17__normal_iteratorIPKiSt6vectorIiSaIiEEEC2ERKS2_(ptr noundef nonnull align 8 dereferenceable(8) %0, ptr noundef nonnull align 8 dereferenceable(8) %1) unnamed_addr #0 comdat align 2 {
  %3 = alloca ptr, align 8
  %4 = alloca ptr, align 8
  store ptr %0, ptr %3, align 8, !tbaa !39
  store ptr %1, ptr %4, align 8, !tbaa !434
  %5 = load ptr, ptr %3, align 8
  %6 = getelementptr inbounds nuw %"class.__gnu_cxx::__normal_iterator", ptr %5, i32 0, i32 0
  %7 = load ptr, ptr %4, align 8, !tbaa !434
  %8 = load ptr, ptr %7, align 8, !tbaa !41
  store ptr %8, ptr %6, align 8, !tbaa !43
  ret void
}

; Function Attrs: mustprogress nounwind uwtable
define linkonce_odr hidden noundef nonnull align 8 dereferenceable(8) ptr @_ZN9__gnu_cxx17__normal_iteratorIPKiSt6vectorIiSaIiEEEppEv(ptr noundef nonnull align 8 dereferenceable(8) %0) #0 comdat align 2 {
  %2 = alloca ptr, align 8
  store ptr %0, ptr %2, align 8, !tbaa !39
  %3 = load ptr, ptr %2, align 8
  %4 = getelementptr inbounds nuw %"class.__gnu_cxx::__normal_iterator", ptr %3, i32 0, i32 0
  %5 = load ptr, ptr %4, align 8, !tbaa !43
  %6 = getelementptr inbounds nuw i32, ptr %5, i32 1
  store ptr %6, ptr %4, align 8, !tbaa !43
  ret ptr %3
}

; Function Attrs: mustprogress nounwind uwtable
define linkonce_odr hidden noundef nonnull align 4 dereferenceable(4) ptr @_ZNK9__gnu_cxx17__normal_iteratorIPKiSt6vectorIiSaIiEEEdeEv(ptr noundef nonnull align 8 dereferenceable(8) %0) #0 comdat align 2 {
  %2 = alloca ptr, align 8
  store ptr %0, ptr %2, align 8, !tbaa !39
  %3 = load ptr, ptr %2, align 8
  %4 = getelementptr inbounds nuw %"class.__gnu_cxx::__normal_iterator", ptr %3, i32 0, i32 0
  %5 = load ptr, ptr %4, align 8, !tbaa !43
  ret ptr %5
}

; Function Attrs: inlinehint mustprogress nounwind uwtable
define linkonce_odr noundef zeroext i1 @_ZN9__gnu_cxxneIPKiSt6vectorIiSaIiEEEEbRKNS_17__normal_iteratorIT_T0_EESB_(ptr noundef nonnull align 8 dereferenceable(8) %0, ptr noundef nonnull align 8 dereferenceable(8) %1) #5 comdat {
  %3 = alloca ptr, align 8
  %4 = alloca ptr, align 8
  store ptr %0, ptr %3, align 8, !tbaa !39
  store ptr %1, ptr %4, align 8, !tbaa !39
  %5 = load ptr, ptr %3, align 8, !tbaa !39
  %6 = call noundef nonnull align 8 dereferenceable(8) ptr @_ZNK9__gnu_cxx17__normal_iteratorIPKiSt6vectorIiSaIiEEE4baseEv(ptr noundef nonnull align 8 dereferenceable(8) %5) #21
  %7 = load ptr, ptr %6, align 8, !tbaa !41
  %8 = load ptr, ptr %4, align 8, !tbaa !39
  %9 = call noundef nonnull align 8 dereferenceable(8) ptr @_ZNK9__gnu_cxx17__normal_iteratorIPKiSt6vectorIiSaIiEEE4baseEv(ptr noundef nonnull align 8 dereferenceable(8) %8) #21
  %10 = load ptr, ptr %9, align 8, !tbaa !41
  %11 = icmp ne ptr %7, %10
  ret i1 %11
}

; Function Attrs: mustprogress nounwind uwtable
define linkonce_odr hidden ptr @_ZNKSt6vectorIiSaIiEE3endEv(ptr noundef nonnull align 8 dereferenceable(24) %0) #0 comdat align 2 {
  %2 = alloca %"class.__gnu_cxx::__normal_iterator", align 8
  %3 = alloca ptr, align 8
  store ptr %0, ptr %3, align 8, !tbaa !30
  %4 = load ptr, ptr %3, align 8
  %5 = getelementptr inbounds nuw %"struct.std::_Vector_base", ptr %4, i32 0, i32 0
  %6 = getelementptr inbounds nuw %"struct.std::_Vector_base<int, std::allocator<int>>::_Vector_impl_data", ptr %5, i32 0, i32 1
  call void @_ZN9__gnu_cxx17__normal_iteratorIPKiSt6vectorIiSaIiEEEC2ERKS2_(ptr noundef nonnull align 8 dereferenceable(8) %2, ptr noundef nonnull align 8 dereferenceable(8) %6) #21
  %7 = getelementptr inbounds nuw %"class.__gnu_cxx::__normal_iterator", ptr %2, i32 0, i32 0
  %8 = load ptr, ptr %7, align 8
  ret ptr %8
}

; Function Attrs: mustprogress nounwind uwtable
define linkonce_odr hidden ptr @_ZNKSt6vectorIiSaIiEE5beginEv(ptr noundef nonnull align 8 dereferenceable(24) %0) #0 comdat align 2 {
  %2 = alloca %"class.__gnu_cxx::__normal_iterator", align 8
  %3 = alloca ptr, align 8
  store ptr %0, ptr %3, align 8, !tbaa !30
  %4 = load ptr, ptr %3, align 8
  %5 = getelementptr inbounds nuw %"struct.std::_Vector_base", ptr %4, i32 0, i32 0
  %6 = getelementptr inbounds nuw %"struct.std::_Vector_base<int, std::allocator<int>>::_Vector_impl_data", ptr %5, i32 0, i32 0
  call void @_ZN9__gnu_cxx17__normal_iteratorIPKiSt6vectorIiSaIiEEEC2ERKS2_(ptr noundef nonnull align 8 dereferenceable(8) %2, ptr noundef nonnull align 8 dereferenceable(8) %6) #21
  %7 = getelementptr inbounds nuw %"class.__gnu_cxx::__normal_iterator", ptr %2, i32 0, i32 0
  %8 = load ptr, ptr %7, align 8
  ret ptr %8
}

; Function Attrs: mustprogress nounwind uwtable
define hidden noundef i32 @_ZN2cv17QRCodeEncoderImpl19findVersionCapacityEiiRKSt6vectorIiSaIiEE(ptr noundef nonnull align 8 dereferenceable(384) %0, i32 noundef %1, i32 noundef %2, ptr noundef nonnull align 8 dereferenceable(24) %3) #0 align 2 {
  %5 = alloca ptr, align 8
  %6 = alloca i32, align 4
  %7 = alloca i32, align 4
  %8 = alloca ptr, align 8
  %9 = alloca i32, align 4
  %10 = alloca i32, align 4
  %11 = alloca i32, align 4
  %12 = alloca ptr, align 8
  %13 = alloca %"class.__gnu_cxx::__normal_iterator", align 8
  %14 = alloca %"class.__gnu_cxx::__normal_iterator", align 8
  %15 = alloca i32, align 4
  %16 = alloca i32, align 4
  %17 = alloca ptr, align 8
  store ptr %0, ptr %5, align 8, !tbaa !20
  store i32 %1, ptr %6, align 4, !tbaa !29
  store i32 %2, ptr %7, align 4, !tbaa !29
  store ptr %3, ptr %8, align 8, !tbaa !30
  call void @llvm.lifetime.start.p0(i64 4, ptr %9) #21
  call void @llvm.lifetime.start.p0(i64 4, ptr %10) #21
  store i32 -1, ptr %10, align 4, !tbaa !29
  call void @llvm.lifetime.start.p0(i64 4, ptr %11) #21
  store i32 8, ptr %11, align 4, !tbaa !29
  store i32 -1, ptr %10, align 4, !tbaa !29
  call void @llvm.lifetime.start.p0(i64 8, ptr %12) #21
  %18 = load ptr, ptr %8, align 8, !tbaa !30
  store ptr %18, ptr %12, align 8, !tbaa !30
  call void @llvm.lifetime.start.p0(i64 8, ptr %13) #21
  %19 = load ptr, ptr %12, align 8, !tbaa !30
  %20 = call ptr @_ZNKSt6vectorIiSaIiEE5beginEv(ptr noundef nonnull align 8 dereferenceable(24) %19) #21
  %21 = getelementptr inbounds nuw %"class.__gnu_cxx::__normal_iterator", ptr %13, i32 0, i32 0
  store ptr %20, ptr %21, align 8
  call void @llvm.lifetime.start.p0(i64 8, ptr %14) #21
  %22 = load ptr, ptr %12, align 8, !tbaa !30
  %23 = call ptr @_ZNKSt6vectorIiSaIiEE3endEv(ptr noundef nonnull align 8 dereferenceable(24) %22) #21
  %24 = getelementptr inbounds nuw %"class.__gnu_cxx::__normal_iterator", ptr %14, i32 0, i32 0
  store ptr %23, ptr %24, align 8
  br label %25

25:                                               ; preds = %66, %4
  %26 = call noundef zeroext i1 @_ZN9__gnu_cxxneIPKiSt6vectorIiSaIiEEEEbRKNS_17__normal_iteratorIT_T0_EESB_(ptr noundef nonnull align 8 dereferenceable(8) %13, ptr noundef nonnull align 8 dereferenceable(8) %14) #21
  br i1 %26, label %28, label %27

27:                                               ; preds = %25
  store i32 2, ptr %15, align 4
  br label %68

28:                                               ; preds = %25
  call void @llvm.lifetime.start.p0(i64 4, ptr %16) #21
  %29 = call noundef nonnull align 4 dereferenceable(4) ptr @_ZNK9__gnu_cxx17__normal_iteratorIPKiSt6vectorIiSaIiEEEdeEv(ptr noundef nonnull align 8 dereferenceable(8) %13) #21
  %30 = load i32, ptr %29, align 4, !tbaa !29
  store i32 %30, ptr %16, align 4, !tbaa !29
  call void @llvm.lifetime.start.p0(i64 8, ptr %17) #21
  %31 = load i32, ptr %16, align 4, !tbaa !29
  %32 = sext i32 %31 to i64
  %33 = getelementptr inbounds [41 x %"struct.cv::VersionInfo"], ptr @_ZN2cvL21version_info_databaseE, i64 0, i64 %32
  %34 = getelementptr inbounds nuw %"struct.cv::VersionInfo", ptr %33, i32 0, i32 2
  %35 = load i32, ptr %7, align 4, !tbaa !29
  %36 = sext i32 %35 to i64
  %37 = getelementptr inbounds [4 x %"struct.cv::BlockParams"], ptr %34, i64 0, i64 %36
  store ptr %37, ptr %17, align 8, !tbaa !32
  %38 = load ptr, ptr %17, align 8, !tbaa !32
  %39 = getelementptr inbounds nuw %"struct.cv::BlockParams", ptr %38, i32 0, i32 2
  %40 = load i32, ptr %39, align 4, !tbaa !34
  %41 = load ptr, ptr %17, align 8, !tbaa !32
  %42 = getelementptr inbounds nuw %"struct.cv::BlockParams", ptr %41, i32 0, i32 1
  %43 = load i32, ptr %42, align 4, !tbaa !36
  %44 = mul nsw i32 %40, %43
  %45 = load ptr, ptr %17, align 8, !tbaa !32
  %46 = getelementptr inbounds nuw %"struct.cv::BlockParams", ptr %45, i32 0, i32 4
  %47 = load i32, ptr %46, align 4, !tbaa !37
  %48 = load ptr, ptr %17, align 8, !tbaa !32
  %49 = getelementptr inbounds nuw %"struct.cv::BlockParams", ptr %48, i32 0, i32 3
  %50 = load i32, ptr %49, align 4, !tbaa !38
  %51 = mul nsw i32 %47, %50
  %52 = add nsw i32 %44, %51
  store i32 %52, ptr %9, align 4, !tbaa !29
  %53 = load i32, ptr %9, align 4, !tbaa !29
  %54 = mul nsw i32 %53, 8
  %55 = load i32, ptr %6, align 4, !tbaa !29
  %56 = icmp sge i32 %54, %55
  br i1 %56, label %57, label %59

57:                                               ; preds = %28
  %58 = load i32, ptr %16, align 4, !tbaa !29
  store i32 %58, ptr %10, align 4, !tbaa !29
  store i32 2, ptr %15, align 4
  br label %60

59:                                               ; preds = %28
  store i32 0, ptr %15, align 4
  br label %60

60:                                               ; preds = %59, %57
  call void @llvm.lifetime.end.p0(i64 8, ptr %17) #21
  %61 = load i32, ptr %15, align 4
  switch i32 %61, label %63 [
    i32 0, label %62
  ]

62:                                               ; preds = %60
  store i32 0, ptr %15, align 4
  br label %63

63:                                               ; preds = %62, %60
  call void @llvm.lifetime.end.p0(i64 4, ptr %16) #21
  %64 = load i32, ptr %15, align 4
  switch i32 %64, label %68 [
    i32 0, label %65
  ]

65:                                               ; preds = %63
  br label %66

66:                                               ; preds = %65
  %67 = call noundef nonnull align 8 dereferenceable(8) ptr @_ZN9__gnu_cxx17__normal_iteratorIPKiSt6vectorIiSaIiEEEppEv(ptr noundef nonnull align 8 dereferenceable(8) %13) #21
  br label %25

68:                                               ; preds = %63, %27
  call void @llvm.lifetime.end.p0(i64 8, ptr %14) #21
  call void @llvm.lifetime.end.p0(i64 8, ptr %13) #21
  call void @llvm.lifetime.end.p0(i64 8, ptr %12) #21
  br label %69

69:                                               ; preds = %68
  %70 = load i32, ptr %10, align 4, !tbaa !29
  store i32 1, ptr %15, align 4
  call void @llvm.lifetime.end.p0(i64 4, ptr %11) #21
  call void @llvm.lifetime.end.p0(i64 4, ptr %10) #21
  call void @llvm.lifetime.end.p0(i64 4, ptr %9) #21
  ret i32 %70
}