; Function Attrs: mustprogress nofree norecurse nosync nounwind willreturn memory(read, inaccessiblemem: none) uwtable
define hidden noundef i32 @_ZN2cv17QRCodeEncoderImpl19findVersionCapacityEiiRKSt6vectorIiSaIiEE(ptr noundef nonnull readnone align 8 captures(none) dereferenceable(384) %0, i32 noundef %1, i32 noundef %2, ptr noundef nonnull readonly align 8 captures(none) dereferenceable(24) %3) local_unnamed_addr #7 align 2 {
  %5 = load ptr, ptr %3, align 8, !tbaa !22
  %6 = getelementptr inbounds nuw i8, ptr %3, i64 8
  %7 = load ptr, ptr %6, align 8, !tbaa !22
  %.not1920 = icmp eq ptr %5, %7
  br i1 %.not1920, label %._crit_edge, label %.lr.ph

.lr.ph:                                           ; preds = %4
  %8 = sext i32 %2 to i64
  br label %11

9:                                                ; preds = %11
  %10 = getelementptr inbounds nuw i8, ptr %.sroa.016.021, i64 4
  %.not19 = icmp eq ptr %10, %7
  br i1 %.not19, label %._crit_edge, label %11

11:                                               ; preds = %.lr.ph, %9
  %.sroa.016.021 = phi ptr [ %5, %.lr.ph ], [ %10, %9 ]
  %12 = load i32, ptr %.sroa.016.021, align 4, !tbaa !24
  %13 = sext i32 %12 to i64
  %14 = getelementptr inbounds [41 x %"struct.cv::VersionInfo"], ptr @_ZN2cvL21version_info_databaseE, i64 0, i64 %13, i32 2, i64 %8
  %15 = getelementptr inbounds nuw i8, ptr %14, i64 8
  %16 = load i32, ptr %15, align 4, !tbaa !25
  %17 = getelementptr inbounds nuw i8, ptr %14, i64 4
  %18 = load i32, ptr %17, align 4, !tbaa !27
  %19 = mul nsw i32 %18, %16
  %20 = getelementptr inbounds nuw i8, ptr %14, i64 16
  %21 = load i32, ptr %20, align 4, !tbaa !28
  %22 = getelementptr inbounds nuw i8, ptr %14, i64 12
  %23 = load i32, ptr %22, align 4, !tbaa !29
  %24 = mul nsw i32 %23, %21
  %25 = add nsw i32 %24, %19
  %26 = shl nsw i32 %25, 3
  %.not = icmp slt i32 %26, %1
  br i1 %.not, label %9, label %._crit_edge

._crit_edge:                                      ; preds = %11, %9, %4
  %.1 = phi i32 [ -1, %4 ], [ -1, %9 ], [ %12, %11 ]
  ret i32 %.1
}